target datalayout = "e-m:e-p270:32:32-p271:32:32-p272:64:64-i64:64-i128:128-f80:128-n8:16:32:64-S128"
target triple = "x86_64-pc-linux-gnu"

%"class.cv::Size_" = type { i32, i32 }
%"class.cv::Size_.0" = type { float, float }
%"class.std::vector.6" = type { %"struct.std::_Vector_base.7" }
%"struct.std::_Vector_base.7" = type { %"struct.std::_Vector_base<float, std::allocator<float>>::_Vector_impl" }
%"struct.std::_Vector_base<float, std::allocator<float>>::_Vector_impl" = type { %"struct.std::_Vector_base<float, std::allocator<float>>::_Vector_impl_data" }
%"struct.std::_Vector_base<float, std::allocator<float>>::_Vector_impl_data" = type { ptr, ptr, ptr }
%"class.cv::mcc::CChartModel" = type { %"class.cv::Size_", %"class.cv::Size_.0", %"class.std::vector", %"class.std::vector", %"class.std::vector", %"class.std::vector.1" }
%"class.std::vector" = type { %"struct.std::_Vector_base" }
%"struct.std::_Vector_base" = type { %"struct.std::_Vector_base<cv::Point_<float>, std::allocator<cv::Point_<float>>>::_Vector_impl" }
%"struct.std::_Vector_base<cv::Point_<float>, std::allocator<cv::Point_<float>>>::_Vector_impl" = type { %"struct.std::_Vector_base<cv::Point_<float>, std::allocator<cv::Point_<float>>>::_Vector_impl_data" }
%"struct.std::_Vector_base<cv::Point_<float>, std::allocator<cv::Point_<float>>>::_Vector_impl_data" = type { ptr, ptr, ptr }
%"class.std::vector.1" = type { %"struct.std::_Vector_base.2" }
%"struct.std::_Vector_base.2" = type { %"struct.std::_Vector_base<std::vector<float>, std::allocator<std::vector<float>>>::_Vector_impl" }
%"struct.std::_Vector_base<std::vector<float>, std::allocator<std::vector<float>>>::_Vector_impl" = type { %"struct.std::_Vector_base<std::vector<float>, std::allocator<std::vector<float>>>::_Vector_impl_data" }
%"struct.std::_Vector_base<std::vector<float>, std::allocator<std::vector<float>>>::_Vector_impl_data" = type { ptr, ptr, ptr }
%"class.cv::Mat" = type { i32, i32, i32, i32, ptr, ptr, ptr, ptr, ptr, ptr, %"struct.cv::MatSize", %"struct.cv::MatStep" }
%"struct.cv::MatSize" = type { ptr }
%"struct.cv::MatStep" = type { ptr, [2 x i64] }
%"class.cv::Vec" = type { %"class.cv::Matx" }
%"class.cv::Matx" = type { [3 x float] }

; Function Attrs: inlinehint mustprogress nounwind uwtable
define linkonce_odr hidden noundef nonnull align 4 dereferenceable(4) ptr @_ZN2cv3VecIfLi3EEixEi(ptr noundef nonnull align 4 dereferenceable(12) %0, i32 noundef %1) #4 comdat align 2 {
  %3 = alloca ptr, align 8
  %4 = alloca i32, align 4
  store ptr %0, ptr %3, align 8, !tbaa !74
  store i32 %1, ptr %4, align 4, !tbaa !18
  %5 = load ptr, ptr %3, align 8
  %6 = getelementptr inbounds nuw %"class.cv::Matx", ptr %5, i32 0, i32 0
  %7 = load i32, ptr %4, align 4, !tbaa !18
  %8 = sext i32 %7 to i64
  %9 = getelementptr inbounds [3 x float], ptr %6, i64 0, i64 %8
  ret ptr %9
}

; Function Attrs: mustprogress nounwind uwtable
define linkonce_odr hidden noundef nonnull align 4 dereferenceable(4) ptr @_ZNSt6vectorIfSaIfEEixEm(ptr noundef nonnull align 8 dereferenceable(24) %0, i64 noundef %1) #7 comdat align 2 {
  %3 = alloca ptr, align 8
  %4 = alloca i64, align 8
  store ptr %0, ptr %3, align 8, !tbaa !43
  store i64 %1, ptr %4, align 8, !tbaa !39
  %5 = load ptr, ptr %3, align 8
  %6 = getelementptr inbounds nuw %"struct.std::_Vector_base.7", ptr %5, i32 0, i32 0
  %7 = getelementptr inbounds nuw %"struct.std::_Vector_base<float, std::allocator<float>>::_Vector_impl_data", ptr %6, i32 0, i32 0
  %8 = load ptr, ptr %7, align 8, !tbaa !49
  %9 = load i64, ptr %4, align 8, !tbaa !39
  %10 = getelementptr inbounds nuw float, ptr %8, i64 %9
  ret ptr %10
}

; Function Attrs: mustprogress nounwind uwtable
define linkonce_odr hidden noundef nonnull align 8 dereferenceable(24) ptr @_ZNSt6vectorIS_IfSaIfEESaIS1_EEixEm(ptr noundef nonnull align 8 dereferenceable(24) %0, i64 noundef %1) #7 comdat align 2 {
  %3 = alloca ptr, align 8
  %4 = alloca i64, align 8
  store ptr %0, ptr %3, align 8, !tbaa !37
  store i64 %1, ptr %4, align 8, !tbaa !39
  %5 = load ptr, ptr %3, align 8
  %6 = getelementptr inbounds nuw %"struct.std::_Vector_base.2", ptr %5, i32 0, i32 0
  %7 = getelementptr inbounds nuw %"struct.std::_Vector_base<std::vector<float>, std::allocator<std::vector<float>>>::_Vector_impl_data", ptr %6, i32 0, i32 0
  %8 = load ptr, ptr %7, align 8, !tbaa !45
  %9 = load i64, ptr %4, align 8, !tbaa !39
  %10 = getelementptr inbounds nuw %"class.std::vector.6", ptr %8, i64 %9
  ret ptr %10
}

; Function Attrs: inlinehint mustprogress nounwind uwtable
define linkonce_odr hidden noundef nonnull align 4 dereferenceable(12) ptr @_ZN2cv3Mat2atINS_3VecIfLi3EEEEERT_ii(ptr noundef nonnull align 8 dereferenceable(96) %0, i32 noundef %1, i32 noundef %2) #4 comdat align 2 {
  %4 = alloca ptr, align 8
  %5 = alloca i32, align 4
  %6 = alloca i32, align 4
  store ptr %0, ptr %4, align 8, !tbaa !97
  store i32 %1, ptr %5, align 4, !tbaa !18
  store i32 %2, ptr %6, align 4, !tbaa !18
  %7 = load ptr, ptr %4, align 8
  %8 = getelementptr inbounds nuw %"class.cv::Mat", ptr %7, i32 0, i32 4
  %9 = load ptr, ptr %8, align 8, !tbaa !99
  %10 = getelementptr inbounds nuw %"class.cv::Mat", ptr %7, i32 0, i32 11
  %11 = getelementptr inbounds nuw %"struct.cv::MatStep", ptr %10, i32 0, i32 0
  %12 = load ptr, ptr %11, align 8, !tbaa !100
  %13 = getelementptr inbounds i64, ptr %12, i64 0
  %14 = load i64, ptr %13, align 8, !tbaa !39
  %15 = load i32, ptr %5, align 4, !tbaa !18
  %16 = sext i32 %15 to i64
  %17 = mul i64 %14, %16
  %18 = getelementptr inbounds nuw i8, ptr %9, i64 %17
  %19 = load i32, ptr %6, align 4, !tbaa !18
  %20 = sext i32 %19 to i64
  %21 = getelementptr inbounds %"class.cv::Vec", ptr %18, i64 %20
  ret ptr %21
}

; Function Attrs: mustprogress uwtable
define hidden void @_ZN2cv3mcc11CChartModel14copyToColorMatERKNS_12_OutputArrayEi(ptr noundef nonnull align 8 dereferenceable(112) %0, ptr noundef nonnull align 8 dereferenceable(24) %1, i32 noundef %2) #6 align 2 personality ptr @__gxx_personality_v0 {
  %4 = alloca ptr, align 8
  %5 = alloca ptr, align 8
  %6 = alloca i32, align 4
  %7 = alloca i64, align 8
  %8 = alloca i64, align 8
  %9 = alloca i64, align 8
  %10 = alloca %"class.cv::Mat", align 8
  %11 = alloca i32, align 4
  %12 = alloca i64, align 8
  %13 = alloca i32, align 4
  %14 = alloca i64, align 8
  %15 = alloca ptr, align 8
  %16 = alloca ptr, align 8
  %17 = alloca i32, align 4
  store ptr %0, ptr %4, align 8, !tbaa !13
  store ptr %1, ptr %5, align 8, !tbaa !93
  store i32 %2, ptr %6, align 4, !tbaa !18
  %18 = load ptr, ptr %4, align 8
  call void @llvm.lifetime.start.p0(i64 8, ptr %7) #3
  call void @llvm.lifetime.start.p0(i64 8, ptr %8) #3
  call void @llvm.lifetime.start.p0(i64 8, ptr %9) #3
  %19 = getelementptr inbounds nuw %"class.cv::mcc::CChartModel", ptr %18, i32 0, i32 0
  %20 = getelementptr inbounds nuw %"class.cv::Size_", ptr %19, i32 0, i32 0
  %21 = load i32, ptr %20, align 8, !tbaa !65
  %22 = sext i32 %21 to i64
  store i64 %22, ptr %7, align 8, !tbaa !39
  %23 = getelementptr inbounds nuw %"class.cv::mcc::CChartModel", ptr %18, i32 0, i32 0
  %24 = getelementptr inbounds nuw %"class.cv::Size_", ptr %23, i32 0, i32 1
  %25 = load i32, ptr %24, align 4, !tbaa !73
  %26 = sext i32 %25 to i64
  store i64 %26, ptr %8, align 8, !tbaa !39
  call void @llvm.lifetime.start.p0(i64 96, ptr %10) #3
  %27 = load i64, ptr %7, align 8, !tbaa !39
  %28 = trunc i64 %27 to i32
  %29 = load i64, ptr %8, align 8, !tbaa !39
  %30 = trunc i64 %29 to i32
  call void @_ZN2cv3MatC1Eiii(ptr noundef nonnull align 8 dereferenceable(96) %10, i32 noundef %28, i32 noundef %30, i32 noundef 21)
  call void @llvm.lifetime.start.p0(i64 4, ptr %11) #3
  %31 = load i32, ptr %6, align 4, !tbaa !18
  %32 = mul nsw i32 3, %31
  store i32 %32, ptr %11, align 4, !tbaa !18
  store i64 0, ptr %9, align 8, !tbaa !39
  call void @llvm.lifetime.start.p0(i64 8, ptr %12) #3
  store i64 0, ptr %12, align 8, !tbaa !39
  br label %33

33:                                               ; preds = %94, %3
  %34 = load i64, ptr %12, align 8, !tbaa !39
  %35 = load i64, ptr %7, align 8, !tbaa !39
  %36 = icmp ult i64 %34, %35
  br i1 %36, label %38, label %37

37:                                               ; preds = %33
  store i32 2, ptr %13, align 4
  call void @llvm.lifetime.end.p0(i64 8, ptr %12) #3
  br label %97

38:                                               ; preds = %33
  call void @llvm.lifetime.start.p0(i64 8, ptr %14) #3
  store i64 0, ptr %14, align 8, !tbaa !39
  br label %39

39:                                               ; preds = %86, %38
  %40 = load i64, ptr %14, align 8, !tbaa !39
  %41 = load i64, ptr %8, align 8, !tbaa !39
  %42 = icmp ult i64 %40, %41
  br i1 %42, label %44, label %43

43:                                               ; preds = %39
  store i32 5, ptr %13, align 4
  call void @llvm.lifetime.end.p0(i64 8, ptr %14) #3
  br label %93

44:                                               ; preds = %39
  call void @llvm.lifetime.start.p0(i64 8, ptr %15) #3
  %45 = load i64, ptr %12, align 8, !tbaa !39
  %46 = trunc i64 %45 to i32
  %47 = load i64, ptr %14, align 8, !tbaa !39
  %48 = trunc i64 %47 to i32
  %49 = invoke noundef nonnull align 4 dereferenceable(12) ptr @_ZN2cv3Mat2atINS_3VecIfLi3EEEEERT_ii(ptr noundef nonnull align 8 dereferenceable(96) %10, i32 noundef %46, i32 noundef %48)
          to label %50 unwind label %89

50:                                               ; preds = %44
  store ptr %49, ptr %15, align 8, !tbaa !74
  %51 = getelementptr inbounds nuw %"class.cv::mcc::CChartModel", ptr %18, i32 0, i32 5
  %52 = load i64, ptr %9, align 8, !tbaa !39
  %53 = call noundef nonnull align 8 dereferenceable(24) ptr @_ZNSt6vectorIS_IfSaIfEESaIS1_EEixEm(ptr noundef nonnull align 8 dereferenceable(24) %51, i64 noundef %52) #3
  %54 = load i32, ptr %11, align 4, !tbaa !18
  %55 = add nsw i32 %54, 0
  %56 = sext i32 %55 to i64
  %57 = call noundef nonnull align 4 dereferenceable(4) ptr @_ZNSt6vectorIfSaIfEEixEm(ptr noundef nonnull align 8 dereferenceable(24) %53, i64 noundef %56) #3
  %58 = load float, ptr %57, align 4, !tbaa !8
  %59 = load ptr, ptr %15, align 8, !tbaa !74
  %60 = invoke noundef nonnull align 4 dereferenceable(4) ptr @_ZN2cv3VecIfLi3EEixEi(ptr noundef nonnull align 4 dereferenceable(12) %59, i32 noundef 0)
          to label %61 unwind label %89

61:                                               ; preds = %50
  store float %58, ptr %60, align 4, !tbaa !8
  %62 = getelementptr inbounds nuw %"class.cv::mcc::CChartModel", ptr %18, i32 0, i32 5
  %63 = load i64, ptr %9, align 8, !tbaa !39
  %64 = call noundef nonnull align 8 dereferenceable(24) ptr @_ZNSt6vectorIS_IfSaIfEESaIS1_EEixEm(ptr noundef nonnull align 8 dereferenceable(24) %62, i64 noundef %63) #3
  %65 = load i32, ptr %11, align 4, !tbaa !18
  %66 = add nsw i32 %65, 1
  %67 = sext i32 %66 to i64
  %68 = call noundef nonnull align 4 dereferenceable(4) ptr @_ZNSt6vectorIfSaIfEEixEm(ptr noundef nonnull align 8 dereferenceable(24) %64, i64 noundef %67) #3
  %69 = load float, ptr %68, align 4, !tbaa !8
  %70 = load ptr, ptr %15, align 8, !tbaa !74
  %71 = invoke noundef nonnull align 4 dereferenceable(4) ptr @_ZN2cv3VecIfLi3EEixEi(ptr noundef nonnull align 4 dereferenceable(12) %70, i32 noundef 1)
          to label %72 unwind label %89

72:                                               ; preds = %61
  store float %69, ptr %71, align 4, !tbaa !8
  %73 = getelementptr inbounds nuw %"class.cv::mcc::CChartModel", ptr %18, i32 0, i32 5
  %74 = load i64, ptr %9, align 8, !tbaa !39
  %75 = call noundef nonnull align 8 dereferenceable(24) ptr @_ZNSt6vectorIS_IfSaIfEESaIS1_EEixEm(ptr noundef nonnull align 8 dereferenceable(24) %73, i64 noundef %74) #3
  %76 = load i32, ptr %11, align 4, !tbaa !18
  %77 = add nsw i32 %76, 2
  %78 = sext i32 %77 to i64
  %79 = call noundef nonnull align 4 dereferenceable(4) ptr @_ZNSt6vectorIfSaIfEEixEm(ptr noundef nonnull align 8 dereferenceable(24) %75, i64 noundef %78) #3
  %80 = load float, ptr %79, align 4, !tbaa !8
  %81 = load ptr, ptr %15, align 8, !tbaa !74
  %82 = invoke noundef nonnull align 4 dereferenceable(4) ptr @_ZN2cv3VecIfLi3EEixEi(ptr noundef nonnull align 4 dereferenceable(12) %81, i32 noundef 2)
          to label %83 unwind label %89

83:                                               ; preds = %72
  store float %80, ptr %82, align 4, !tbaa !8
  %84 = load i64, ptr %9, align 8, !tbaa !39
  %85 = add i64 %84, 1
  store i64 %85, ptr %9, align 8, !tbaa !39
  call void @llvm.lifetime.end.p0(i64 8, ptr %15) #3
  br label %86

86:                                               ; preds = %83
  %87 = load i64, ptr %14, align 8, !tbaa !39
  %88 = add i64 %87, 1
  store i64 %88, ptr %14, align 8, !tbaa !39
  br label %39, !llvm.loop !95

89:                                               ; preds = %72, %61, %50, %44
  %90 = landingpad { ptr, i32 }
          cleanup
  %91 = extractvalue { ptr, i32 } %90, 0
  store ptr %91, ptr %16, align 8
  %92 = extractvalue { ptr, i32 } %90, 1
  store i32 %92, ptr %17, align 4
  call void @llvm.lifetime.end.p0(i64 8, ptr %15) #3
  call void @llvm.lifetime.end.p0(i64 8, ptr %14) #3
  call void @llvm.lifetime.end.p0(i64 8, ptr %12) #3
  br label %104

93:                                               ; preds = %43
  br label %94

94:                                               ; preds = %93
  %95 = load i64, ptr %12, align 8, !tbaa !39
  %96 = add i64 %95, 1
  store i64 %96, ptr %12, align 8, !tbaa !39
  br label %33, !llvm.loop !96

97:                                               ; preds = %37
  %98 = load ptr, ptr %5, align 8, !tbaa !93
  invoke void @_ZNK2cv12_OutputArray6assignERKNS_3MatE(ptr noundef nonnull align 8 dereferenceable(24) %98, ptr noundef nonnull align 8 dereferenceable(96) %10)
          to label %99 unwind label %100

99:                                               ; preds = %97
  call void @llvm.lifetime.end.p0(i64 4, ptr %11) #3
  call void @_ZN2cv3MatD1Ev(ptr noundef nonnull align 8 dereferenceable(96) %10) #3
  call void @llvm.lifetime.end.p0(i64 96, ptr %10) #3
  call void @llvm.lifetime.end.p0(i64 8, ptr %9) #3
  call void @llvm.lifetime.end.p0(i64 8, ptr %8) #3
  call void @llvm.lifetime.end.p0(i64 8, ptr %7) #3
  ret void

100:                                              ; preds = %97
  %101 = landingpad { ptr, i32 }
          cleanup
  %102 = extractvalue { ptr, i32 } %101, 0
  store ptr %102, ptr %16, align 8
  %103 = extractvalue { ptr, i32 } %101, 1
  store i32 %103, ptr %17, align 4
  br label %104

104:                                              ; preds = %100, %89
  call void @llvm.lifetime.end.p0(i64 4, ptr %11) #3
  call void @_ZN2cv3MatD1Ev(ptr noundef nonnull align 8 dereferenceable(96) %10) #3
  call void @llvm.lifetime.end.p0(i64 96, ptr %10) #3
  call void @llvm.lifetime.end.p0(i64 8, ptr %9) #3
  call void @llvm.lifetime.end.p0(i64 8, ptr %8) #3
  call void @llvm.lifetime.end.p0(i64 8, ptr %7) #3
  br label %105

105:                                              ; preds = %104
  %106 = load ptr, ptr %16, align 8
  %107 = load i32, ptr %17, align 4
  %108 = insertvalue { ptr, i32 } poison, ptr %106, 0
  %109 = insertvalue { ptr, i32 } %108, i32 %107, 1
  resume { ptr, i32 } %109
}