; Function Attrs: mustprogress uwtable
define hidden void @_ZN2cv3mcc11CChartModel14copyToColorMatERKNS_12_OutputArrayEi(ptr noundef nonnull readonly align 8 captures(none) dereferenceable(112) %0, ptr noundef nonnull align 8 dereferenceable(24) %1, i32 noundef %2) local_unnamed_addr #4 align 2 personality ptr @__gxx_personality_v0 {
  %4 = alloca %"class.cv::Mat", align 8
  %5 = load i32, ptr %0, align 8, !tbaa !40
  %6 = sext i32 %5 to i64
  %7 = getelementptr inbounds nuw i8, ptr %0, i64 4
  %8 = load i32, ptr %7, align 4, !tbaa !49
  %9 = sext i32 %8 to i64
  call void @llvm.lifetime.start.p0(i64 96, ptr nonnull %4) #32
  call void @_ZN2cv3MatC1Eiii(ptr noundef nonnull align 8 dereferenceable(96) %4, i32 noundef %5, i32 noundef %8, i32 noundef 21)
  %.not = icmp eq i32 %5, 0
  br i1 %.not, label %._crit_edge31, label %.preheader.lr.ph

.preheader.lr.ph:                                 ; preds = %3
  %10 = mul nsw i32 %2, 3
  %.not32 = icmp eq i32 %8, 0
  %11 = getelementptr inbounds nuw i8, ptr %4, i64 16
  %12 = load ptr, ptr %11, align 8
  %13 = getelementptr inbounds nuw i8, ptr %0, i64 88
  %14 = load ptr, ptr %13, align 8
  %15 = sext i32 %10 to i64
  br i1 %.not32, label %._crit_edge31, label %.preheader.lr.ph.split.us

.preheader.lr.ph.split.us:                        ; preds = %.preheader.lr.ph
  %16 = getelementptr inbounds nuw i8, ptr %4, i64 72
  %17 = load ptr, ptr %16, align 8
  %18 = load i64, ptr %17, align 8, !tbaa !50
  br label %.preheader.us

.preheader.us:                                    ; preds = %._crit_edge.us, %.preheader.lr.ph.split.us
  %.030.us = phi i64 [ 0, %.preheader.lr.ph.split.us ], [ %35, %._crit_edge.us ]
  %.02429.us = phi i64 [ 0, %.preheader.lr.ph.split.us ], [ %37, %._crit_edge.us ]
  %sext.us = shl i64 %.02429.us, 32
  %19 = ashr exact i64 %sext.us, 32
  %20 = mul i64 %18, %19
  %21 = getelementptr inbounds nuw i8, ptr %12, i64 %20
  br label %22

22:                                               ; preds = %.preheader.us, %22
  %.128.us = phi i64 [ %.030.us, %.preheader.us ], [ %35, %22 ]
  %.02527.us = phi i64 [ 0, %.preheader.us ], [ %36, %22 ]
  %sext26.us = shl i64 %.02527.us, 32
  %23 = ashr exact i64 %sext26.us, 32
  %24 = getelementptr inbounds %"class.cv::Vec", ptr %21, i64 %23
  %25 = getelementptr inbounds nuw %"class.std::vector.6", ptr %14, i64 %.128.us
  %26 = load ptr, ptr %25, align 8, !tbaa !17
  %27 = getelementptr float, ptr %26, i64 %15
  %28 = load float, ptr %27, align 4, !tbaa !30
  store float %28, ptr %24, align 4, !tbaa !30
  %29 = getelementptr i8, ptr %27, i64 4
  %30 = load float, ptr %29, align 4, !tbaa !30
  %31 = getelementptr inbounds nuw i8, ptr %24, i64 4
  store float %30, ptr %31, align 4, !tbaa !30
  %32 = getelementptr i8, ptr %27, i64 8
  %33 = load float, ptr %32, align 4, !tbaa !30
  %34 = getelementptr inbounds nuw i8, ptr %24, i64 8
  store float %33, ptr %34, align 4, !tbaa !30
  %35 = add i64 %.128.us, 1
  %36 = add nuw i64 %.02527.us, 1
  %exitcond.not = icmp eq i64 %36, %9
  br i1 %exitcond.not, label %._crit_edge.us, label %22, !llvm.loop !87

._crit_edge.us:                                   ; preds = %22
  %37 = add nuw i64 %.02429.us, 1
  %exitcond34.not = icmp eq i64 %37, %6
  br i1 %exitcond34.not, label %._crit_edge31, label %.preheader.us, !llvm.loop !88

._crit_edge31:                                    ; preds = %._crit_edge.us, %.preheader.lr.ph, %3
  invoke void @_ZNK2cv12_OutputArray6assignERKNS_3MatE(ptr noundef nonnull align 8 dereferenceable(24) %1, ptr noundef nonnull align 8 dereferenceable(96) %4)
          to label %38 unwind label %39

38:                                               ; preds = %._crit_edge31
  call void @_ZN2cv3MatD1Ev(ptr noundef nonnull align 8 dereferenceable(96) %4) #32
  call void @llvm.lifetime.end.p0(i64 96, ptr nonnull %4) #32
  ret void

39:                                               ; preds = %._crit_edge31
  %40 = landingpad { ptr, i32 }
          cleanup
  call void @_ZN2cv3MatD1Ev(ptr noundef nonnull align 8 dereferenceable(96) %4) #32
  call void @llvm.lifetime.end.p0(i64 96, ptr nonnull %4) #32
  resume { ptr, i32 } %40
}